target datalayout = "e-m:e-p270:32:32-p271:32:32-p272:64:64-i64:64-i128:128-f80:128-n8:16:32:64-S128"
target triple = "x86_64-pc-linux-gnu"

%struct.AVFilterContext = type { ptr, ptr, ptr, ptr, ptr, i32, ptr, ptr, i32, ptr, ptr, i32, i32, ptr, ptr, ptr, ptr, i32, ptr, i32, i32 }
%struct.AudioFadeContext = type { ptr, i32, i32, i32, i64, i64, i64, i64, double, double, i32, [2 x i32], i32, i64, ptr, ptr, ptr }
%struct.AVRational = type { i32, i32 }
%struct.AVChannelLayout = type { i32, i32, %union.anon.1, ptr }
%union.anon.1 = type { i64 }
%struct.AVFilterLink = type { ptr, ptr, ptr, ptr, i32, i32, i32, i32, %struct.AVRational, i32, i32, i32, %struct.AVChannelLayout, %struct.AVRational, ptr, i32, %struct.AVFilterFormatsConfig, %struct.AVFilterFormatsConfig }
%struct.AVFilterFormatsConfig = type { ptr, ptr, ptr, ptr, ptr }

; Function Attrs: nounwind uwtable
define internal i32 @config_output(ptr noundef %0) #1 {
  %2 = alloca ptr, align 8
  %3 = alloca ptr, align 8
  %4 = alloca ptr, align 8
  store ptr %0, ptr %2, align 8, !tbaa !32
  call void @llvm.lifetime.start.p0(i64 8, ptr %3) #10
  %5 = load ptr, ptr %2, align 8, !tbaa !32
  %6 = getelementptr inbounds nuw %struct.AVFilterLink, ptr %5, i32 0, i32 0
  %7 = load ptr, ptr %6, align 8, !tbaa !73
  store ptr %7, ptr %3, align 8, !tbaa !4
  call void @llvm.lifetime.start.p0(i64 8, ptr %4) #10
  %8 = load ptr, ptr %3, align 8, !tbaa !4
  %9 = getelementptr inbounds nuw %struct.AVFilterContext, ptr %8, i32 0, i32 9
  %10 = load ptr, ptr %9, align 8, !tbaa !9
  store ptr %10, ptr %4, align 8, !tbaa !22
  %11 = load ptr, ptr %2, align 8, !tbaa !32
  %12 = getelementptr inbounds nuw %struct.AVFilterLink, ptr %11, i32 0, i32 5
  %13 = load i32, ptr %12, align 4, !tbaa !74
  switch i32 %13, label %54 [
    i32 4, label %14
    i32 9, label %19
    i32 3, label %24
    i32 8, label %29
    i32 1, label %34
    i32 6, label %39
    i32 2, label %44
    i32 7, label %49
  ]

14:                                               ; preds = %1
  %15 = load ptr, ptr %4, align 8, !tbaa !22
  %16 = getelementptr inbounds nuw %struct.AudioFadeContext, ptr %15, i32 0, i32 14
  store ptr @fade_samples_dbl, ptr %16, align 8, !tbaa !65
  %17 = load ptr, ptr %4, align 8, !tbaa !22
  %18 = getelementptr inbounds nuw %struct.AudioFadeContext, ptr %17, i32 0, i32 15
  store ptr @scale_samples_dbl, ptr %18, align 8, !tbaa !72
  br label %54

19:                                               ; preds = %1
  %20 = load ptr, ptr %4, align 8, !tbaa !22
  %21 = getelementptr inbounds nuw %struct.AudioFadeContext, ptr %20, i32 0, i32 14
  store ptr @fade_samples_dblp, ptr %21, align 8, !tbaa !65
  %22 = load ptr, ptr %4, align 8, !tbaa !22
  %23 = getelementptr inbounds nuw %struct.AudioFadeContext, ptr %22, i32 0, i32 15
  store ptr @scale_samples_dblp, ptr %23, align 8, !tbaa !72
  br label %54

24:                                               ; preds = %1
  %25 = load ptr, ptr %4, align 8, !tbaa !22
  %26 = getelementptr inbounds nuw %struct.AudioFadeContext, ptr %25, i32 0, i32 14
  store ptr @fade_samples_flt, ptr %26, align 8, !tbaa !65
  %27 = load ptr, ptr %4, align 8, !tbaa !22
  %28 = getelementptr inbounds nuw %struct.AudioFadeContext, ptr %27, i32 0, i32 15
  store ptr @scale_samples_flt, ptr %28, align 8, !tbaa !72
  br label %54

29:                                               ; preds = %1
  %30 = load ptr, ptr %4, align 8, !tbaa !22
  %31 = getelementptr inbounds nuw %struct.AudioFadeContext, ptr %30, i32 0, i32 14
  store ptr @fade_samples_fltp, ptr %31, align 8, !tbaa !65
  %32 = load ptr, ptr %4, align 8, !tbaa !22
  %33 = getelementptr inbounds nuw %struct.AudioFadeContext, ptr %32, i32 0, i32 15
  store ptr @scale_samples_fltp, ptr %33, align 8, !tbaa !72
  br label %54

34:                                               ; preds = %1
  %35 = load ptr, ptr %4, align 8, !tbaa !22
  %36 = getelementptr inbounds nuw %struct.AudioFadeContext, ptr %35, i32 0, i32 14
  store ptr @fade_samples_s16, ptr %36, align 8, !tbaa !65
  %37 = load ptr, ptr %4, align 8, !tbaa !22
  %38 = getelementptr inbounds nuw %struct.AudioFadeContext, ptr %37, i32 0, i32 15
  store ptr @scale_samples_s16, ptr %38, align 8, !tbaa !72
  br label %54

39:                                               ; preds = %1
  %40 = load ptr, ptr %4, align 8, !tbaa !22
  %41 = getelementptr inbounds nuw %struct.AudioFadeContext, ptr %40, i32 0, i32 14
  store ptr @fade_samples_s16p, ptr %41, align 8, !tbaa !65
  %42 = load ptr, ptr %4, align 8, !tbaa !22
  %43 = getelementptr inbounds nuw %struct.AudioFadeContext, ptr %42, i32 0, i32 15
  store ptr @scale_samples_s16p, ptr %43, align 8, !tbaa !72
  br label %54

44:                                               ; preds = %1
  %45 = load ptr, ptr %4, align 8, !tbaa !22
  %46 = getelementptr inbounds nuw %struct.AudioFadeContext, ptr %45, i32 0, i32 14
  store ptr @fade_samples_s32, ptr %46, align 8, !tbaa !65
  %47 = load ptr, ptr %4, align 8, !tbaa !22
  %48 = getelementptr inbounds nuw %struct.AudioFadeContext, ptr %47, i32 0, i32 15
  store ptr @scale_samples_s32, ptr %48, align 8, !tbaa !72
  br label %54

49:                                               ; preds = %1
  %50 = load ptr, ptr %4, align 8, !tbaa !22
  %51 = getelementptr inbounds nuw %struct.AudioFadeContext, ptr %50, i32 0, i32 14
  store ptr @fade_samples_s32p, ptr %51, align 8, !tbaa !65
  %52 = load ptr, ptr %4, align 8, !tbaa !22
  %53 = getelementptr inbounds nuw %struct.AudioFadeContext, ptr %52, i32 0, i32 15
  store ptr @scale_samples_s32p, ptr %53, align 8, !tbaa !72
  br label %54

54:                                               ; preds = %1, %49, %44, %39, %34, %29, %24, %19, %14
  %55 = load ptr, ptr %4, align 8, !tbaa !22
  %56 = getelementptr inbounds nuw %struct.AudioFadeContext, ptr %55, i32 0, i32 6
  %57 = load i64, ptr %56, align 8, !tbaa !75
  %58 = icmp ne i64 %57, 0
  br i1 %58, label %59, label %70

59:                                               ; preds = %54
  %60 = load ptr, ptr %4, align 8, !tbaa !22
  %61 = getelementptr inbounds nuw %struct.AudioFadeContext, ptr %60, i32 0, i32 6
  %62 = load i64, ptr %61, align 8, !tbaa !75
  %63 = load ptr, ptr %2, align 8, !tbaa !32
  %64 = getelementptr inbounds nuw %struct.AVFilterLink, ptr %63, i32 0, i32 11
  %65 = load i32, ptr %64, align 8, !tbaa !52
  %66 = sext i32 %65 to i64
  %67 = call i64 @av_rescale(i64 noundef %62, i64 noundef %66, i64 noundef 1000000) #11
  %68 = load ptr, ptr %4, align 8, !tbaa !22
  %69 = getelementptr inbounds nuw %struct.AudioFadeContext, ptr %68, i32 0, i32 4
  store i64 %67, ptr %69, align 8, !tbaa !24
  br label %70

70:                                               ; preds = %59, %54
  %71 = load ptr, ptr %4, align 8, !tbaa !22
  %72 = getelementptr inbounds nuw %struct.AudioFadeContext, ptr %71, i32 0, i32 6
  store i64 0, ptr %72, align 8, !tbaa !75
  %73 = load ptr, ptr %4, align 8, !tbaa !22
  %74 = getelementptr inbounds nuw %struct.AudioFadeContext, ptr %73, i32 0, i32 7
  %75 = load i64, ptr %74, align 8, !tbaa !76
  %76 = icmp ne i64 %75, 0
  br i1 %76, label %77, label %88

77:                                               ; preds = %70
  %78 = load ptr, ptr %4, align 8, !tbaa !22
  %79 = getelementptr inbounds nuw %struct.AudioFadeContext, ptr %78, i32 0, i32 7
  %80 = load i64, ptr %79, align 8, !tbaa !76
  %81 = load ptr, ptr %2, align 8, !tbaa !32
  %82 = getelementptr inbounds nuw %struct.AVFilterLink, ptr %81, i32 0, i32 11
  %83 = load i32, ptr %82, align 8, !tbaa !52
  %84 = sext i32 %83 to i64
  %85 = call i64 @av_rescale(i64 noundef %80, i64 noundef %84, i64 noundef 1000000) #11
  %86 = load ptr, ptr %4, align 8, !tbaa !22
  %87 = getelementptr inbounds nuw %struct.AudioFadeContext, ptr %86, i32 0, i32 5
  store i64 %85, ptr %87, align 8, !tbaa !28
  br label %88

88:                                               ; preds = %77, %70
  %89 = load ptr, ptr %4, align 8, !tbaa !22
  %90 = getelementptr inbounds nuw %struct.AudioFadeContext, ptr %89, i32 0, i32 7
  store i64 0, ptr %90, align 8, !tbaa !76
  call void @llvm.lifetime.end.p0(i64 8, ptr %4) #10
  call void @llvm.lifetime.end.p0(i64 8, ptr %3) #10
  ret i32 0
}

; Function Attrs: nounwind uwtable
define internal i32 @process_command(ptr noundef %0, ptr noundef %1, ptr noundef %2, ptr noundef %3, i32 noundef %4, i32 noundef %5) #1 {
  %7 = alloca i32, align 4
  %8 = alloca ptr, align 8
  %9 = alloca ptr, align 8
  %10 = alloca ptr, align 8
  %11 = alloca ptr, align 8
  %12 = alloca i32, align 4
  %13 = alloca i32, align 4
  %14 = alloca i32, align 4
  %15 = alloca i32, align 4
  store ptr %0, ptr %8, align 8, !tbaa !4
  store ptr %1, ptr %9, align 8, !tbaa !29
  store ptr %2, ptr %10, align 8, !tbaa !29
  store ptr %3, ptr %11, align 8, !tbaa !29
  store i32 %4, ptr %12, align 4, !tbaa !30
  store i32 %5, ptr %13, align 4, !tbaa !30
  call void @llvm.lifetime.start.p0(i64 4, ptr %14) #10
  %16 = load ptr, ptr %8, align 8, !tbaa !4
  %17 = load ptr, ptr %9, align 8, !tbaa !29
  %18 = load ptr, ptr %10, align 8, !tbaa !29
  %19 = load ptr, ptr %11, align 8, !tbaa !29
  %20 = load i32, ptr %12, align 4, !tbaa !30
  %21 = load i32, ptr %13, align 4, !tbaa !30
  %22 = call i32 @ff_filter_process_command(ptr noundef %16, ptr noundef %17, ptr noundef %18, ptr noundef %19, i32 noundef %20, i32 noundef %21)
  store i32 %22, ptr %14, align 4, !tbaa !30
  %23 = load i32, ptr %14, align 4, !tbaa !30
  %24 = icmp slt i32 %23, 0
  br i1 %24, label %25, label %27

25:                                               ; preds = %6
  %26 = load i32, ptr %14, align 4, !tbaa !30
  store i32 %26, ptr %7, align 4
  store i32 1, ptr %15, align 4
  br label %34

27:                                               ; preds = %6
  %28 = load ptr, ptr %8, align 8, !tbaa !4
  %29 = getelementptr inbounds nuw %struct.AVFilterContext, ptr %28, i32 0, i32 7
  %30 = load ptr, ptr %29, align 8, !tbaa !31
  %31 = getelementptr inbounds ptr, ptr %30, i64 0
  %32 = load ptr, ptr %31, align 8, !tbaa !32
  %33 = call i32 @config_output(ptr noundef %32)
  store i32 %33, ptr %7, align 4
  store i32 1, ptr %15, align 4
  br label %34

34:                                               ; preds = %27, %25
  call void @llvm.lifetime.end.p0(i64 4, ptr %14) #10
  %35 = load i32, ptr %7, align 4
  ret i32 %35
}