; Function Attrs: nounwind uwtable
define internal range(i32 -2147483648, 1) i32 @process_command(ptr noundef %0, ptr noundef %1, ptr noundef %2, ptr noundef %3, i32 noundef %4, i32 noundef %5) #1 {
  %7 = tail call i32 @ff_filter_process_command(ptr noundef %0, ptr noundef %1, ptr noundef %2, ptr noundef %3, i32 noundef %4, i32 noundef %5) #11
  %8 = icmp slt i32 %7, 0
  br i1 %8, label %41, label %9

9:                                                ; preds = %6
  %10 = getelementptr inbounds nuw i8, ptr %0, i64 56
  %11 = load ptr, ptr %10, align 8, !tbaa !25
  %12 = load ptr, ptr %11, align 8, !tbaa !26
  %13 = load ptr, ptr %12, align 8, !tbaa !28
  %14 = getelementptr inbounds nuw i8, ptr %13, i64 72
  %15 = load ptr, ptr %14, align 8, !tbaa !4
  %16 = getelementptr inbounds nuw i8, ptr %12, i64 36
  %17 = load i32, ptr %16, align 4, !tbaa !37
  %switch.tableidx = add i32 %17, -1
  %18 = icmp ult i32 %switch.tableidx, 9
  %switch.maskindex = trunc i32 %switch.tableidx to i16
  %switch.shifted = lshr i16 495, %switch.maskindex
  %switch.lobit = trunc i16 %switch.shifted to i1
  %or.cond = select i1 %18, i1 %switch.lobit, i1 false
  br i1 %or.cond, label %switch.lookup, label %23

switch.lookup:                                    ; preds = %9
  %19 = zext nneg i32 %switch.tableidx to i64
  %switch.gep = getelementptr inbounds nuw [9 x ptr], ptr @switch.table.acrossfade_config_output.3, i64 0, i64 %19
  %switch.load = load ptr, ptr %switch.gep, align 8
  %20 = zext nneg i32 %switch.tableidx to i64
  %switch.gep10 = getelementptr inbounds nuw [9 x ptr], ptr @switch.table.acrossfade_config_output.4, i64 0, i64 %20
  %switch.load11 = load ptr, ptr %switch.gep10, align 8
  %21 = getelementptr inbounds nuw i8, ptr %15, i64 96
  store ptr %switch.load, ptr %21, align 8, !tbaa !38
  %22 = getelementptr inbounds nuw i8, ptr %15, i64 104
  store ptr %switch.load11, ptr %22, align 8, !tbaa !39
  br label %23

23:                                               ; preds = %9, %switch.lookup
  %24 = getelementptr inbounds nuw i8, ptr %15, i64 40
  %25 = load i64, ptr %24, align 8, !tbaa !40
  %.not.i = icmp eq i64 %25, 0
  br i1 %.not.i, label %32, label %26

26:                                               ; preds = %23
  %27 = getelementptr inbounds nuw i8, ptr %12, i64 64
  %28 = load i32, ptr %27, align 8, !tbaa !41
  %29 = sext i32 %28 to i64
  %30 = tail call i64 @av_rescale(i64 noundef %25, i64 noundef %29, i64 noundef 1000000) #12
  %31 = getelementptr inbounds nuw i8, ptr %15, i64 24
  store i64 %30, ptr %31, align 8, !tbaa !20
  br label %32

32:                                               ; preds = %26, %23
  store i64 0, ptr %24, align 8, !tbaa !40
  %33 = getelementptr inbounds nuw i8, ptr %15, i64 48
  %34 = load i64, ptr %33, align 8, !tbaa !42
  %.not30.i = icmp eq i64 %34, 0
  br i1 %.not30.i, label %config_output.exit, label %35

35:                                               ; preds = %32
  %36 = getelementptr inbounds nuw i8, ptr %12, i64 64
  %37 = load i32, ptr %36, align 8, !tbaa !41
  %38 = sext i32 %37 to i64
  %39 = tail call i64 @av_rescale(i64 noundef %34, i64 noundef %38, i64 noundef 1000000) #12
  %40 = getelementptr inbounds nuw i8, ptr %15, i64 32
  store i64 %39, ptr %40, align 8, !tbaa !24
  br label %config_output.exit

config_output.exit:                               ; preds = %32, %35
  store i64 0, ptr %33, align 8, !tbaa !42
  br label %41

41:                                               ; preds = %6, %config_output.exit
  %.0 = phi i32 [ 0, %config_output.exit ], [ %7, %6 ]
  ret i32 %.0
}